; Function Attrs: nofree norecurse nosync nounwind memory(read, argmem: readwrite, inaccessiblemem: none) uwtable
define internal void @VFilter8i_C(ptr noalias noundef captures(none) %0, ptr noalias noundef captures(none) %1, i32 noundef %2, i32 noundef %3, i32 noundef %4, i32 noundef %5) #5 {
  %7 = shl nsw i32 %2, 2
  %8 = sext i32 %7 to i64
  %9 = getelementptr inbounds i8, ptr %0, i64 %8
  tail call fastcc void @FilterLoop24_C(ptr noundef %9, i32 noundef %2, i32 noundef 1, i32 noundef 8, i32 noundef %3, i32 noundef %4, i32 noundef %5)
  %10 = getelementptr inbounds i8, ptr %1, i64 %8
  tail call fastcc void @FilterLoop24_C(ptr noundef %10, i32 noundef %2, i32 noundef 1, i32 noundef 8, i32 noundef %3, i32 noundef %4, i32 noundef %5)
  ret void
}